target datalayout = "e-m:e-p270:32:32-p271:32:32-p272:64:64-i64:64-i128:128-f80:128-n8:16:32:64-S128"
target triple = "x86_64-pc-linux-gnu"

%struct.ZSTD_customMem = type { ptr, ptr, ptr }
%struct.POOL_ctx_s = type { %struct.ZSTD_customMem, ptr, i64, i64, ptr, i64, i64, i64, i64, i32, %union.pthread_mutex_t, %union.pthread_cond_t, %union.pthread_cond_t, i32 }
%union.pthread_mutex_t = type { %struct.__pthread_mutex_s }
%struct.__pthread_mutex_s = type { i32, i32, i32, i32, i32, i16, i16, %struct.__pthread_internal_list }
%struct.__pthread_internal_list = type { ptr, ptr }
%union.pthread_cond_t = type { %struct.__pthread_cond_s }
%struct.__pthread_cond_s = type { %union.__atomic_wide_counter, %union.__atomic_wide_counter, [2 x i32], [2 x i32], i32, i32, [2 x i32] }
%union.__atomic_wide_counter = type { i64 }

; Function Attrs: inlinehint nounwind uwtable
define internal ptr @ZSTD_customCalloc(i64 noundef %0, ptr noundef byval(%struct.ZSTD_customMem) align 8 %1) #2 {
  %3 = alloca ptr, align 8
  %4 = alloca i64, align 8
  %5 = alloca ptr, align 8
  store i64 %0, ptr %4, align 8, !tbaa !3
  %6 = getelementptr inbounds nuw %struct.ZSTD_customMem, ptr %1, i32 0, i32 0
  %7 = load ptr, ptr %6, align 8, !tbaa !30
  %8 = icmp ne ptr %7, null
  br i1 %8, label %9, label %19

9:                                                ; preds = %2
  call void @llvm.lifetime.start.p0(i64 8, ptr %5) #8
  %10 = getelementptr inbounds nuw %struct.ZSTD_customMem, ptr %1, i32 0, i32 0
  %11 = load ptr, ptr %10, align 8, !tbaa !30
  %12 = getelementptr inbounds nuw %struct.ZSTD_customMem, ptr %1, i32 0, i32 2
  %13 = load ptr, ptr %12, align 8, !tbaa !31
  %14 = load i64, ptr %4, align 8, !tbaa !3
  %15 = call ptr %11(ptr noundef %13, i64 noundef %14)
  store ptr %15, ptr %5, align 8, !tbaa !26
  %16 = load ptr, ptr %5, align 8, !tbaa !26
  %17 = load i64, ptr %4, align 8, !tbaa !3
  call void @llvm.memset.p0.i64(ptr align 1 %16, i8 0, i64 %17, i1 false)
  %18 = load ptr, ptr %5, align 8, !tbaa !26
  store ptr %18, ptr %3, align 8
  call void @llvm.lifetime.end.p0(i64 8, ptr %5) #8
  br label %22

19:                                               ; preds = %2
  %20 = load i64, ptr %4, align 8, !tbaa !3
  %21 = call noalias ptr @calloc(i64 noundef 1, i64 noundef %20) #9
  store ptr %21, ptr %3, align 8
  br label %22

22:                                               ; preds = %19, %9
  %23 = load ptr, ptr %3, align 8
  ret ptr %23
}

; Function Attrs: nounwind uwtable
define ptr @POOL_create_advanced(i64 noundef %0, i64 noundef %1, ptr noundef byval(%struct.ZSTD_customMem) align 8 %2) #0 {
  %4 = alloca ptr, align 8
  %5 = alloca i64, align 8
  %6 = alloca i64, align 8
  %7 = alloca ptr, align 8
  %8 = alloca i32, align 4
  %9 = alloca i32, align 4
  %10 = alloca i64, align 8
  store i64 %0, ptr %5, align 8, !tbaa !3
  store i64 %1, ptr %6, align 8, !tbaa !3
  call void @llvm.lifetime.start.p0(i64 8, ptr %7) #8
  %11 = load i64, ptr %5, align 8, !tbaa !3
  %12 = icmp ne i64 %11, 0
  br i1 %12, label %14, label %13

13:                                               ; preds = %3
  store ptr null, ptr %4, align 8
  store i32 1, ptr %8, align 4
  br label %118

14:                                               ; preds = %3
  %15 = call ptr @ZSTD_customCalloc(i64 noundef 240, ptr noundef byval(%struct.ZSTD_customMem) align 8 %2)
  store ptr %15, ptr %7, align 8, !tbaa !7
  %16 = load ptr, ptr %7, align 8, !tbaa !7
  %17 = icmp ne ptr %16, null
  br i1 %17, label %19, label %18

18:                                               ; preds = %14
  store ptr null, ptr %4, align 8
  store i32 1, ptr %8, align 4
  br label %118

19:                                               ; preds = %14
  %20 = load i64, ptr %6, align 8, !tbaa !3
  %21 = add i64 %20, 1
  %22 = load ptr, ptr %7, align 8, !tbaa !7
  %23 = getelementptr inbounds nuw %struct.POOL_ctx_s, ptr %22, i32 0, i32 7
  store i64 %21, ptr %23, align 8, !tbaa !10
  %24 = load ptr, ptr %7, align 8, !tbaa !7
  %25 = getelementptr inbounds nuw %struct.POOL_ctx_s, ptr %24, i32 0, i32 7
  %26 = load i64, ptr %25, align 8, !tbaa !10
  %27 = mul i64 %26, 16
  %28 = call ptr @ZSTD_customCalloc(i64 noundef %27, ptr noundef byval(%struct.ZSTD_customMem) align 8 %2)
  %29 = load ptr, ptr %7, align 8, !tbaa !7
  %30 = getelementptr inbounds nuw %struct.POOL_ctx_s, ptr %29, i32 0, i32 4
  store ptr %28, ptr %30, align 8, !tbaa !16
  %31 = load ptr, ptr %7, align 8, !tbaa !7
  %32 = getelementptr inbounds nuw %struct.POOL_ctx_s, ptr %31, i32 0, i32 5
  store i64 0, ptr %32, align 8, !tbaa !17
  %33 = load ptr, ptr %7, align 8, !tbaa !7
  %34 = getelementptr inbounds nuw %struct.POOL_ctx_s, ptr %33, i32 0, i32 6
  store i64 0, ptr %34, align 8, !tbaa !18
  %35 = load ptr, ptr %7, align 8, !tbaa !7
  %36 = getelementptr inbounds nuw %struct.POOL_ctx_s, ptr %35, i32 0, i32 8
  store i64 0, ptr %36, align 8, !tbaa !19
  %37 = load ptr, ptr %7, align 8, !tbaa !7
  %38 = getelementptr inbounds nuw %struct.POOL_ctx_s, ptr %37, i32 0, i32 9
  store i32 1, ptr %38, align 8, !tbaa !20
  call void @llvm.lifetime.start.p0(i64 4, ptr %9) #8
  store i32 0, ptr %9, align 4, !tbaa !21
  %39 = load ptr, ptr %7, align 8, !tbaa !7
  %40 = getelementptr inbounds nuw %struct.POOL_ctx_s, ptr %39, i32 0, i32 10
  %41 = call i32 @pthread_mutex_init(ptr noundef %40, ptr noundef null) #8
  %42 = load i32, ptr %9, align 4, !tbaa !21
  %43 = or i32 %42, %41
  store i32 %43, ptr %9, align 4, !tbaa !21
  %44 = load ptr, ptr %7, align 8, !tbaa !7
  %45 = getelementptr inbounds nuw %struct.POOL_ctx_s, ptr %44, i32 0, i32 11
  %46 = call i32 @pthread_cond_init(ptr noundef %45, ptr noundef null) #8
  %47 = load i32, ptr %9, align 4, !tbaa !21
  %48 = or i32 %47, %46
  store i32 %48, ptr %9, align 4, !tbaa !21
  %49 = load ptr, ptr %7, align 8, !tbaa !7
  %50 = getelementptr inbounds nuw %struct.POOL_ctx_s, ptr %49, i32 0, i32 12
  %51 = call i32 @pthread_cond_init(ptr noundef %50, ptr noundef null) #8
  %52 = load i32, ptr %9, align 4, !tbaa !21
  %53 = or i32 %52, %51
  store i32 %53, ptr %9, align 4, !tbaa !21
  %54 = load i32, ptr %9, align 4, !tbaa !21
  %55 = icmp ne i32 %54, 0
  br i1 %55, label %56, label %58

56:                                               ; preds = %19
  %57 = load ptr, ptr %7, align 8, !tbaa !7
  call void @POOL_free(ptr noundef %57)
  store ptr null, ptr %4, align 8
  store i32 1, ptr %8, align 4
  br label %59

58:                                               ; preds = %19
  store i32 0, ptr %8, align 4
  br label %59

59:                                               ; preds = %58, %56
  call void @llvm.lifetime.end.p0(i64 4, ptr %9) #8
  %60 = load i32, ptr %8, align 4
  switch i32 %60, label %118 [
    i32 0, label %61
  ]

61:                                               ; preds = %59
  %62 = load ptr, ptr %7, align 8, !tbaa !7
  %63 = getelementptr inbounds nuw %struct.POOL_ctx_s, ptr %62, i32 0, i32 13
  store i32 0, ptr %63, align 8, !tbaa !22
  %64 = load i64, ptr %5, align 8, !tbaa !3
  %65 = mul i64 %64, 8
  %66 = call ptr @ZSTD_customCalloc(i64 noundef %65, ptr noundef byval(%struct.ZSTD_customMem) align 8 %2)
  %67 = load ptr, ptr %7, align 8, !tbaa !7
  %68 = getelementptr inbounds nuw %struct.POOL_ctx_s, ptr %67, i32 0, i32 1
  store ptr %66, ptr %68, align 8, !tbaa !23
  %69 = load ptr, ptr %7, align 8, !tbaa !7
  %70 = getelementptr inbounds nuw %struct.POOL_ctx_s, ptr %69, i32 0, i32 2
  store i64 0, ptr %70, align 8, !tbaa !24
  %71 = load ptr, ptr %7, align 8, !tbaa !7
  %72 = getelementptr inbounds nuw %struct.POOL_ctx_s, ptr %71, i32 0, i32 0
  call void @llvm.memcpy.p0.p0.i64(ptr align 8 %72, ptr align 8 %2, i64 24, i1 false), !tbaa.struct !25
  %73 = load ptr, ptr %7, align 8, !tbaa !7
  %74 = getelementptr inbounds nuw %struct.POOL_ctx_s, ptr %73, i32 0, i32 1
  %75 = load ptr, ptr %74, align 8, !tbaa !23
  %76 = icmp ne ptr %75, null
  br i1 %76, label %77, label %82

77:                                               ; preds = %61
  %78 = load ptr, ptr %7, align 8, !tbaa !7
  %79 = getelementptr inbounds nuw %struct.POOL_ctx_s, ptr %78, i32 0, i32 4
  %80 = load ptr, ptr %79, align 8, !tbaa !16
  %81 = icmp ne ptr %80, null
  br i1 %81, label %84, label %82

82:                                               ; preds = %77, %61
  %83 = load ptr, ptr %7, align 8, !tbaa !7
  call void @POOL_free(ptr noundef %83)
  store ptr null, ptr %4, align 8
  store i32 1, ptr %8, align 4
  br label %118

84:                                               ; preds = %77
  call void @llvm.lifetime.start.p0(i64 8, ptr %10) #8
  store i64 0, ptr %10, align 8, !tbaa !3
  br label %85

85:                                               ; preds = %104, %84
  %86 = load i64, ptr %10, align 8, !tbaa !3
  %87 = load i64, ptr %5, align 8, !tbaa !3
  %88 = icmp ult i64 %86, %87
  br i1 %88, label %89, label %107

89:                                               ; preds = %85
  %90 = load ptr, ptr %7, align 8, !tbaa !7
  %91 = getelementptr inbounds nuw %struct.POOL_ctx_s, ptr %90, i32 0, i32 1
  %92 = load ptr, ptr %91, align 8, !tbaa !23
  %93 = load i64, ptr %10, align 8, !tbaa !3
  %94 = getelementptr inbounds nuw i64, ptr %92, i64 %93
  %95 = load ptr, ptr %7, align 8, !tbaa !7
  %96 = call i32 @pthread_create(ptr noundef %94, ptr noundef null, ptr noundef @POOL_thread, ptr noundef %95) #8
  %97 = icmp ne i32 %96, 0
  br i1 %97, label %98, label %103

98:                                               ; preds = %89
  %99 = load i64, ptr %10, align 8, !tbaa !3
  %100 = load ptr, ptr %7, align 8, !tbaa !7
  %101 = getelementptr inbounds nuw %struct.POOL_ctx_s, ptr %100, i32 0, i32 2
  store i64 %99, ptr %101, align 8, !tbaa !24
  %102 = load ptr, ptr %7, align 8, !tbaa !7
  call void @POOL_free(ptr noundef %102)
  store ptr null, ptr %4, align 8
  store i32 1, ptr %8, align 4
  br label %114

103:                                              ; preds = %89
  br label %104

104:                                              ; preds = %103
  %105 = load i64, ptr %10, align 8, !tbaa !3
  %106 = add i64 %105, 1
  store i64 %106, ptr %10, align 8, !tbaa !3
  br label %85, !llvm.loop !27

107:                                              ; preds = %85
  %108 = load i64, ptr %5, align 8, !tbaa !3
  %109 = load ptr, ptr %7, align 8, !tbaa !7
  %110 = getelementptr inbounds nuw %struct.POOL_ctx_s, ptr %109, i32 0, i32 2
  store i64 %108, ptr %110, align 8, !tbaa !24
  %111 = load i64, ptr %5, align 8, !tbaa !3
  %112 = load ptr, ptr %7, align 8, !tbaa !7
  %113 = getelementptr inbounds nuw %struct.POOL_ctx_s, ptr %112, i32 0, i32 3
  store i64 %111, ptr %113, align 8, !tbaa !29
  store i32 0, ptr %8, align 4
  br label %114

114:                                              ; preds = %107, %98
  call void @llvm.lifetime.end.p0(i64 8, ptr %10) #8
  %115 = load i32, ptr %8, align 4
  switch i32 %115, label %118 [
    i32 0, label %116
  ]

116:                                              ; preds = %114
  %117 = load ptr, ptr %7, align 8, !tbaa !7
  store ptr %117, ptr %4, align 8
  store i32 1, ptr %8, align 4
  br label %118

118:                                              ; preds = %116, %114, %82, %59, %18, %13
  call void @llvm.lifetime.end.p0(i64 8, ptr %7) #8
  %119 = load ptr, ptr %4, align 8
  ret ptr %119
}