; Function Attrs: nounwind uwtable
define noundef ptr @POOL_create_advanced(i64 noundef %0, i64 noundef %1, ptr noundef readonly byval(%struct.ZSTD_customMem) align 8 captures(none) %2) local_unnamed_addr #0 {
  %.not = icmp eq i64 %0, 0
  br i1 %.not, label %50, label %4

4:                                                ; preds = %3
  %.val = load ptr, ptr %2, align 8, !tbaa !3
  %5 = getelementptr inbounds nuw i8, ptr %2, i64 16
  %.not.i = icmp eq ptr %.val, null
  br i1 %.not.i, label %ZSTD_customCalloc.exit, label %7

ZSTD_customCalloc.exit:                           ; preds = %4
  %6 = tail call noalias dereferenceable_or_null(240) ptr @calloc(i64 noundef 1, i64 noundef 240) #8
  %.not48 = icmp eq ptr %6, null
  br i1 %.not48, label %50, label %13

7:                                                ; preds = %4
  %.val54 = load ptr, ptr %5, align 8
  %8 = tail call ptr %.val(ptr noundef %.val54, i64 noundef 240) #9
  tail call void @llvm.memset.p0.i64(ptr noundef nonnull align 1 dereferenceable(240) %8, i8 0, i64 240, i1 false)
  %9 = add i64 %1, 1
  %10 = getelementptr inbounds nuw i8, ptr %8, i64 72
  store i64 %9, ptr %10, align 8, !tbaa !8
  %11 = shl i64 %9, 4
  %12 = tail call ptr %.val(ptr noundef %.val54, i64 noundef %11) #9
  tail call void @llvm.memset.p0.i64(ptr align 1 %12, i8 0, i64 %11, i1 false)
  br label %ZSTD_customCalloc.exit61

13:                                               ; preds = %ZSTD_customCalloc.exit
  %14 = add i64 %1, 1
  %15 = getelementptr inbounds nuw i8, ptr %6, i64 72
  store i64 %14, ptr %15, align 8, !tbaa !8
  %16 = shl i64 %14, 4
  %17 = tail call noalias ptr @calloc(i64 noundef 1, i64 noundef %16) #8
  br label %ZSTD_customCalloc.exit61

ZSTD_customCalloc.exit61:                         ; preds = %7, %13
  %.0.i6769 = phi ptr [ %8, %7 ], [ %6, %13 ]
  %.0.i60 = phi ptr [ %12, %7 ], [ %17, %13 ]
  %18 = getelementptr inbounds nuw i8, ptr %.0.i6769, i64 48
  store ptr %.0.i60, ptr %18, align 8, !tbaa !14
  %19 = getelementptr inbounds nuw i8, ptr %.0.i6769, i64 56
  %20 = getelementptr inbounds nuw i8, ptr %.0.i6769, i64 80
  store i64 0, ptr %20, align 8, !tbaa !15
  %21 = getelementptr inbounds nuw i8, ptr %.0.i6769, i64 88
  tail call void @llvm.memset.p0.i64(ptr noundef nonnull align 8 dereferenceable(16) %19, i8 0, i64 16, i1 false)
  store i32 1, ptr %21, align 8, !tbaa !16
  %22 = getelementptr inbounds nuw i8, ptr %.0.i6769, i64 96
  %23 = tail call i32 @pthread_mutex_init(ptr noundef nonnull %22, ptr noundef null) #9
  %24 = getelementptr inbounds nuw i8, ptr %.0.i6769, i64 136
  %25 = tail call i32 @pthread_cond_init(ptr noundef nonnull %24, ptr noundef null) #9
  %26 = or i32 %25, %23
  %27 = getelementptr inbounds nuw i8, ptr %.0.i6769, i64 184
  %28 = tail call i32 @pthread_cond_init(ptr noundef nonnull %27, ptr noundef null) #9
  %29 = or i32 %26, %28
  %.not49 = icmp eq i32 %29, 0
  br i1 %.not49, label %.critedge, label %30

30:                                               ; preds = %ZSTD_customCalloc.exit61
  tail call void @POOL_free(ptr noundef nonnull %.0.i6769)
  br label %50

.critedge:                                        ; preds = %ZSTD_customCalloc.exit61
  %31 = getelementptr inbounds nuw i8, ptr %.0.i6769, i64 232
  store i32 0, ptr %31, align 8, !tbaa !17
  %32 = shl i64 %0, 3
  %.val57 = load ptr, ptr %2, align 8, !tbaa !3
  %.not.i62 = icmp eq ptr %.val57, null
  br i1 %.not.i62, label %35, label %33

33:                                               ; preds = %.critedge
  %.val58 = load ptr, ptr %5, align 8
  %34 = tail call ptr %.val57(ptr noundef %.val58, i64 noundef %32) #9
  tail call void @llvm.memset.p0.i64(ptr align 1 %34, i8 0, i64 %32, i1 false)
  br label %ZSTD_customCalloc.exit64

35:                                               ; preds = %.critedge
  %36 = tail call noalias ptr @calloc(i64 noundef 1, i64 noundef %32) #8
  br label %ZSTD_customCalloc.exit64

ZSTD_customCalloc.exit64:                         ; preds = %33, %35
  %.0.i63 = phi ptr [ %34, %33 ], [ %36, %35 ]
  %37 = getelementptr inbounds nuw i8, ptr %.0.i6769, i64 24
  store ptr %.0.i63, ptr %37, align 8, !tbaa !18
  %38 = getelementptr inbounds nuw i8, ptr %.0.i6769, i64 32
  store i64 0, ptr %38, align 8, !tbaa !19
  call void @llvm.memcpy.p0.p0.i64(ptr noundef nonnull align 8 dereferenceable(24) %.0.i6769, ptr noundef nonnull align 8 dereferenceable(24) %2, i64 24, i1 false), !tbaa.struct !20
  %.not50 = icmp eq ptr %.0.i63, null
  br i1 %.not50, label %41, label %39

39:                                               ; preds = %ZSTD_customCalloc.exit64
  %40 = load ptr, ptr %18, align 8, !tbaa !14
  %.not51 = icmp eq ptr %40, null
  br i1 %.not51, label %41, label %.preheader

41:                                               ; preds = %39, %ZSTD_customCalloc.exit64
  tail call void @POOL_free(ptr noundef nonnull %.0.i6769)
  br label %50

.preheader:                                       ; preds = %39, %46
  %.072 = phi i64 [ %47, %46 ], [ 0, %39 ]
  %42 = load ptr, ptr %37, align 8, !tbaa !18
  %43 = getelementptr inbounds nuw i64, ptr %42, i64 %.072
  %44 = tail call i32 @pthread_create(ptr noundef %43, ptr noundef null, ptr noundef nonnull @POOL_thread, ptr noundef nonnull %.0.i6769) #9
  %.not52 = icmp eq i32 %44, 0
  br i1 %.not52, label %46, label %45

45:                                               ; preds = %.preheader
  store i64 %.072, ptr %38, align 8, !tbaa !19
  tail call void @POOL_free(ptr noundef nonnull %.0.i6769)
  br label %50

46:                                               ; preds = %.preheader
  %47 = add nuw i64 %.072, 1
  %exitcond.not = icmp eq i64 %47, %0
  br i1 %exitcond.not, label %48, label %.preheader, !llvm.loop !22

48:                                               ; preds = %46
  store i64 %0, ptr %38, align 8, !tbaa !19
  %49 = getelementptr inbounds nuw i8, ptr %.0.i6769, i64 40
  store i64 %0, ptr %49, align 8, !tbaa !24
  br label %50

50:                                               ; preds = %45, %48, %30, %ZSTD_customCalloc.exit, %3, %41
  %.043 = phi ptr [ null, %41 ], [ null, %30 ], [ null, %3 ], [ null, %ZSTD_customCalloc.exit ], [ %.0.i6769, %48 ], [ null, %45 ]
  ret ptr %.043
}